target datalayout = "e-m:e-p270:32:32-p271:32:32-p272:64:64-i64:64-i128:128-f80:128-n8:16:32:64-S128"
target triple = "x86_64-pc-linux-gnu"

%"struct.realclosure::mpbq_config::interval" = type { %class.mpbq, %class.mpbq, i8, i8, i8, i8, [4 x i8] }
%class.mpbq = type <{ %class.mpz, i32, [4 x i8] }>
%class.mpz = type { i32, i8, ptr }
%"class.realclosure::manager" = type { ptr }
%"class.realclosure::num" = type { ptr }
%"class.realclosure::save_interval_ctx" = type { ptr }
%class.obj_ref = type { ptr, ptr }
%"struct.realclosure::value" = type { i32, i8, [3 x i8], %"struct.realclosure::mpbq_config::interval", ptr }

; Function Attrs: mustprogress nounwind uwtable
define linkonce_odr hidden void @_ZN11realclosure7manager3imp7inc_refEPNS_5valueE(ptr noundef nonnull align 8 dereferenceable(1497) %0, ptr noundef %1) #4 comdat align 2 {
  %3 = alloca ptr, align 8
  %4 = alloca ptr, align 8
  store ptr %0, ptr %3, align 8, !tbaa !28
  store ptr %1, ptr %4, align 8, !tbaa !99
  %5 = load ptr, ptr %4, align 8, !tbaa !99
  %6 = icmp ne ptr %5, null
  br i1 %6, label %7, label %12

7:                                                ; preds = %2
  %8 = load ptr, ptr %4, align 8, !tbaa !99
  %9 = getelementptr inbounds nuw %"struct.realclosure::value", ptr %8, i32 0, i32 0
  %10 = load i32, ptr %9, align 8, !tbaa !175
  %11 = add i32 %10, 1
  store i32 %11, ptr %9, align 8, !tbaa !175
  br label %12

12:                                               ; preds = %7, %2
  ret void
}

; Function Attrs: mustprogress uwtable
define linkonce_odr hidden void @_ZN11realclosure7manager3imp3setERNS_3numEPNS_5valueE(ptr noundef nonnull align 8 dereferenceable(1497) %0, ptr noundef nonnull align 8 dereferenceable(8) %1, ptr noundef %2) #6 comdat align 2 {
  %4 = alloca ptr, align 8
  %5 = alloca ptr, align 8
  %6 = alloca ptr, align 8
  store ptr %0, ptr %4, align 8, !tbaa !28
  store ptr %1, ptr %5, align 8, !tbaa !76
  store ptr %2, ptr %6, align 8, !tbaa !99
  %7 = load ptr, ptr %4, align 8
  %8 = load ptr, ptr %6, align 8, !tbaa !99
  call void @_ZN11realclosure7manager3imp7inc_refEPNS_5valueE(ptr noundef nonnull align 8 dereferenceable(1497) %7, ptr noundef %8)
  %9 = load ptr, ptr %5, align 8, !tbaa !76
  %10 = getelementptr inbounds nuw %"class.realclosure::num", ptr %9, i32 0, i32 0
  %11 = load ptr, ptr %10, align 8, !tbaa !78
  call void @_ZN11realclosure7manager3imp7dec_refEPNS_5valueE(ptr noundef nonnull align 8 dereferenceable(1497) %7, ptr noundef %11)
  %12 = load ptr, ptr %6, align 8, !tbaa !99
  %13 = load ptr, ptr %5, align 8, !tbaa !76
  %14 = getelementptr inbounds nuw %"class.realclosure::num", ptr %13, i32 0, i32 0
  store ptr %12, ptr %14, align 8, !tbaa !78
  ret void
}

; Function Attrs: mustprogress nounwind uwtable
define linkonce_odr hidden noundef ptr @_ZNK7obj_refIN11realclosure5valueENS0_7manager3impEE3getEv(ptr noundef nonnull align 8 dereferenceable(16) %0) #4 comdat align 2 {
  %2 = alloca ptr, align 8
  store ptr %0, ptr %2, align 8, !tbaa !136
  %3 = load ptr, ptr %2, align 8
  %4 = getelementptr inbounds nuw %class.obj_ref, ptr %3, i32 0, i32 0
  %5 = load ptr, ptr %4, align 8, !tbaa !138
  ret ptr %5
}

; Function Attrs: mustprogress uwtable
define linkonce_odr hidden void @_ZN11realclosure7manager3imp3setERNS_3numERK7obj_refINS_5valueES1_E(ptr noundef nonnull align 8 dereferenceable(1497) %0, ptr noundef nonnull align 8 dereferenceable(8) %1, ptr noundef nonnull align 8 dereferenceable(16) %2) #6 comdat align 2 {
  %4 = alloca ptr, align 8
  %5 = alloca ptr, align 8
  %6 = alloca ptr, align 8
  store ptr %0, ptr %4, align 8, !tbaa !28
  store ptr %1, ptr %5, align 8, !tbaa !76
  store ptr %2, ptr %6, align 8, !tbaa !136
  %7 = load ptr, ptr %4, align 8
  %8 = load ptr, ptr %5, align 8, !tbaa !76
  %9 = load ptr, ptr %6, align 8, !tbaa !136
  %10 = call noundef ptr @_ZNK7obj_refIN11realclosure5valueENS0_7manager3impEE3getEv(ptr noundef nonnull align 8 dereferenceable(16) %9)
  call void @_ZN11realclosure7manager3imp3setERNS_3numEPNS_5valueE(ptr noundef nonnull align 8 dereferenceable(1497) %7, ptr noundef nonnull align 8 dereferenceable(8) %8, ptr noundef %10)
  ret void
}

; Function Attrs: mustprogress nounwind uwtable
define linkonce_odr hidden void @_ZN7obj_refIN11realclosure5valueENS0_7manager3impEEC2ERS3_(ptr noundef nonnull align 8 dereferenceable(16) %0, ptr noundef nonnull align 8 dereferenceable(1497) %1) unnamed_addr #4 comdat align 2 {
  %3 = alloca ptr, align 8
  %4 = alloca ptr, align 8
  store ptr %0, ptr %3, align 8, !tbaa !136
  store ptr %1, ptr %4, align 8, !tbaa !28
  %5 = load ptr, ptr %3, align 8
  %6 = getelementptr inbounds nuw %class.obj_ref, ptr %5, i32 0, i32 0
  store ptr null, ptr %6, align 8, !tbaa !138
  %7 = getelementptr inbounds nuw %class.obj_ref, ptr %5, i32 0, i32 1
  %8 = load ptr, ptr %4, align 8, !tbaa !28
  store ptr %8, ptr %7, align 8, !tbaa !28
  ret void
}

; Function Attrs: mustprogress uwtable
define linkonce_odr hidden void @_ZN11realclosure7manager3imp3negERKNS_3numERS2_(ptr noundef nonnull align 8 dereferenceable(1497) %0, ptr noundef nonnull align 8 dereferenceable(8) %1, ptr noundef nonnull align 8 dereferenceable(8) %2) #6 comdat align 2 personality ptr @__gxx_personality_v0 {
  %4 = alloca ptr, align 8
  %5 = alloca ptr, align 8
  %6 = alloca ptr, align 8
  %7 = alloca %class.obj_ref, align 8
  %8 = alloca ptr, align 8
  %9 = alloca i32, align 4
  store ptr %0, ptr %4, align 8, !tbaa !28
  store ptr %1, ptr %5, align 8, !tbaa !76
  store ptr %2, ptr %6, align 8, !tbaa !76
  %10 = load ptr, ptr %4, align 8
  call void @llvm.lifetime.start.p0(i64 16, ptr %7) #3
  call void @_ZN7obj_refIN11realclosure5valueENS0_7manager3impEEC2ERS3_(ptr noundef nonnull align 8 dereferenceable(16) %7, ptr noundef nonnull align 8 dereferenceable(1497) %10)
  %11 = load ptr, ptr %5, align 8, !tbaa !76
  %12 = getelementptr inbounds nuw %"class.realclosure::num", ptr %11, i32 0, i32 0
  %13 = load ptr, ptr %12, align 8, !tbaa !78
  invoke void @_ZN11realclosure7manager3imp3negEPNS_5valueER7obj_refIS2_S1_E(ptr noundef nonnull align 8 dereferenceable(1497) %10, ptr noundef %13, ptr noundef nonnull align 8 dereferenceable(16) %7)
          to label %14 unwind label %17

14:                                               ; preds = %3
  %15 = load ptr, ptr %6, align 8, !tbaa !76
  invoke void @_ZN11realclosure7manager3imp3setERNS_3numERK7obj_refINS_5valueES1_E(ptr noundef nonnull align 8 dereferenceable(1497) %10, ptr noundef nonnull align 8 dereferenceable(8) %15, ptr noundef nonnull align 8 dereferenceable(16) %7)
          to label %16 unwind label %17

16:                                               ; preds = %14
  call void @_ZN7obj_refIN11realclosure5valueENS0_7manager3impEED2Ev(ptr noundef nonnull align 8 dereferenceable(16) %7) #3
  call void @llvm.lifetime.end.p0(i64 16, ptr %7) #3
  ret void

17:                                               ; preds = %14, %3
  %18 = landingpad { ptr, i32 }
          cleanup
  %19 = extractvalue { ptr, i32 } %18, 0
  store ptr %19, ptr %8, align 8
  %20 = extractvalue { ptr, i32 } %18, 1
  store i32 %20, ptr %9, align 4
  call void @_ZN7obj_refIN11realclosure5valueENS0_7manager3impEED2Ev(ptr noundef nonnull align 8 dereferenceable(16) %7) #3
  call void @llvm.lifetime.end.p0(i64 16, ptr %7) #3
  br label %21

21:                                               ; preds = %17
  %22 = load ptr, ptr %8, align 8
  %23 = load i32, ptr %9, align 4
  %24 = insertvalue { ptr, i32 } poison, ptr %22, 0
  %25 = insertvalue { ptr, i32 } %24, i32 %23, 1
  resume { ptr, i32 } %25
}

; Function Attrs: mustprogress nounwind uwtable
define linkonce_odr hidden void @_ZN11realclosure17save_interval_ctxC2EPKNS_7managerE(ptr noundef nonnull align 8 dereferenceable(8) %0, ptr noundef %1) unnamed_addr #4 comdat align 2 {
  %3 = alloca ptr, align 8
  %4 = alloca ptr, align 8
  store ptr %0, ptr %3, align 8, !tbaa !85
  store ptr %1, ptr %4, align 8, !tbaa !15
  %5 = load ptr, ptr %3, align 8
  %6 = getelementptr inbounds nuw %"class.realclosure::save_interval_ctx", ptr %5, i32 0, i32 0
  %7 = load ptr, ptr %4, align 8, !tbaa !15
  %8 = getelementptr inbounds nuw %"class.realclosure::manager", ptr %7, i32 0, i32 0
  %9 = load ptr, ptr %8, align 8, !tbaa !25
  store ptr %9, ptr %6, align 8, !tbaa !87
  ret void
}

; Function Attrs: mustprogress uwtable
define hidden void @_ZN11realclosure7manager3negERKNS_3numERS1_(ptr noundef nonnull align 8 dereferenceable(8) %0, ptr noundef nonnull align 8 dereferenceable(8) %1, ptr noundef nonnull align 8 dereferenceable(8) %2) #6 align 2 personality ptr @__gxx_personality_v0 {
  %4 = alloca ptr, align 8
  %5 = alloca ptr, align 8
  %6 = alloca ptr, align 8
  %7 = alloca %"class.realclosure::save_interval_ctx", align 8
  %8 = alloca ptr, align 8
  %9 = alloca i32, align 4
  store ptr %0, ptr %4, align 8, !tbaa !15
  store ptr %1, ptr %5, align 8, !tbaa !76
  store ptr %2, ptr %6, align 8, !tbaa !76
  %10 = load ptr, ptr %4, align 8
  call void @llvm.lifetime.start.p0(i64 8, ptr %7) #3
  call void @_ZN11realclosure17save_interval_ctxC2EPKNS_7managerE(ptr noundef nonnull align 8 dereferenceable(8) %7, ptr noundef %10)
  %11 = getelementptr inbounds nuw %"class.realclosure::manager", ptr %10, i32 0, i32 0
  %12 = load ptr, ptr %11, align 8, !tbaa !25
  %13 = load ptr, ptr %5, align 8, !tbaa !76
  %14 = load ptr, ptr %6, align 8, !tbaa !76
  invoke void @_ZN11realclosure7manager3imp3negERKNS_3numERS2_(ptr noundef nonnull align 8 dereferenceable(1497) %12, ptr noundef nonnull align 8 dereferenceable(8) %13, ptr noundef nonnull align 8 dereferenceable(8) %14)
          to label %15 unwind label %16

15:                                               ; preds = %3
  call void @_ZN11realclosure17save_interval_ctxD2Ev(ptr noundef nonnull align 8 dereferenceable(8) %7) #3
  call void @llvm.lifetime.end.p0(i64 8, ptr %7) #3
  ret void

16:                                               ; preds = %3
  %17 = landingpad { ptr, i32 }
          cleanup
  %18 = extractvalue { ptr, i32 } %17, 0
  store ptr %18, ptr %8, align 8
  %19 = extractvalue { ptr, i32 } %17, 1
  store i32 %19, ptr %9, align 4
  call void @_ZN11realclosure17save_interval_ctxD2Ev(ptr noundef nonnull align 8 dereferenceable(8) %7) #3
  call void @llvm.lifetime.end.p0(i64 8, ptr %7) #3
  br label %20

20:                                               ; preds = %16
  %21 = load ptr, ptr %8, align 8
  %22 = load i32, ptr %9, align 4
  %23 = insertvalue { ptr, i32 } poison, ptr %21, 0
  %24 = insertvalue { ptr, i32 } %23, i32 %22, 1
  resume { ptr, i32 } %24
}