; Function Attrs: mustprogress uwtable
define hidden void @_ZN11realclosure7manager3negERKNS_3numERS1_(ptr noundef nonnull readonly align 8 captures(none) dereferenceable(8) %0, ptr noundef nonnull readonly align 8 captures(none) dereferenceable(8) %1, ptr noundef nonnull align 8 captures(none) dereferenceable(8) %2) local_unnamed_addr #5 align 2 personality ptr @__gxx_personality_v0 {
  %4 = alloca %class.obj_ref, align 8
  %5 = alloca %"class.realclosure::save_interval_ctx", align 8
  call void @llvm.lifetime.start.p0(i64 8, ptr nonnull %5) #24
  %6 = load ptr, ptr %0, align 8, !tbaa !11
  store ptr %6, ptr %5, align 8, !tbaa !91
  call void @llvm.lifetime.start.p0(i64 16, ptr nonnull %4) #24
  store ptr null, ptr %4, align 8, !tbaa !128
  %7 = getelementptr inbounds nuw i8, ptr %4, i64 8
  store ptr %6, ptr %7, align 8, !tbaa !123
  %8 = load ptr, ptr %1, align 8, !tbaa !84
  invoke void @_ZN11realclosure7manager3imp3negEPNS_5valueER7obj_refIS2_S1_E(ptr noundef nonnull align 8 dereferenceable(1497) %6, ptr noundef %8, ptr noundef nonnull align 8 dereferenceable(16) %4)
          to label %9 unwind label %.body

9:                                                ; preds = %3
  %10 = load ptr, ptr %4, align 8, !tbaa !128
  %.not.i.i.i.i = icmp eq ptr %10, null
  br i1 %.not.i.i.i.i, label %_ZN11realclosure7manager3imp3setERNS_3numEPNS_5valueE.exit.i.i, label %11

11:                                               ; preds = %9
  %12 = load i32, ptr %10, align 8, !tbaa !66
  %13 = add i32 %12, 1
  store i32 %13, ptr %10, align 8, !tbaa !66
  br label %_ZN11realclosure7manager3imp3setERNS_3numEPNS_5valueE.exit.i.i

_ZN11realclosure7manager3imp3setERNS_3numEPNS_5valueE.exit.i.i: ; preds = %11, %9
  %14 = load ptr, ptr %2, align 8, !tbaa !84
  invoke void @_ZN11realclosure7manager3imp7dec_refEPNS_5valueE(ptr noundef nonnull align 8 dereferenceable(1497) %6, ptr noundef %14)
          to label %15 unwind label %.body

15:                                               ; preds = %_ZN11realclosure7manager3imp3setERNS_3numEPNS_5valueE.exit.i.i
  store ptr %10, ptr %2, align 8, !tbaa !84
  %16 = load ptr, ptr %4, align 8, !tbaa !128
  %.not.i.i.i = icmp eq ptr %16, null
  br i1 %.not.i.i.i, label %23, label %17

17:                                               ; preds = %15
  %18 = load ptr, ptr %7, align 8, !tbaa !133
  invoke void @_ZN11realclosure7manager3imp7dec_refEPNS_5valueE(ptr noundef nonnull align 8 dereferenceable(1497) %18, ptr noundef nonnull %16)
          to label %23 unwind label %19

19:                                               ; preds = %17
  %20 = landingpad { ptr, i32 }
          catch ptr null
  %21 = extractvalue { ptr, i32 } %20, 0
  call void @__clang_call_terminate(ptr %21) #25
  unreachable

.body:                                            ; preds = %_ZN11realclosure7manager3imp3setERNS_3numEPNS_5valueE.exit.i.i, %3
  %22 = landingpad { ptr, i32 }
          cleanup
  call void @_ZN7obj_refIN11realclosure5valueENS0_7manager3impEED2Ev(ptr noundef nonnull align 8 dereferenceable(16) %4) #24
  call void @llvm.lifetime.end.p0(i64 16, ptr nonnull %4) #24
  call void @_ZN11realclosure17save_interval_ctxD2Ev(ptr noundef nonnull align 8 dereferenceable(8) %5) #24
  call void @llvm.lifetime.end.p0(i64 8, ptr nonnull %5) #24
  resume { ptr, i32 } %22

23:                                               ; preds = %17, %15
  call void @llvm.lifetime.end.p0(i64 16, ptr nonnull %4) #24
  %24 = getelementptr inbounds nuw i8, ptr %6, i64 1392
  invoke void @_ZN11realclosure7manager3imp23restore_saved_intervalsINS_5valueEEEvR10ptr_vectorIT_E(ptr noundef nonnull align 8 dereferenceable(1497) %6, ptr noundef nonnull align 8 dereferenceable(8) %24)
          to label %.noexc.i unwind label %26

.noexc.i:                                         ; preds = %23
  %25 = getelementptr inbounds nuw i8, ptr %6, i64 1400
  invoke void @_ZN11realclosure7manager3imp23restore_saved_intervalsINS_9extensionEEEvR10ptr_vectorIT_E(ptr noundef nonnull align 8 dereferenceable(1497) %6, ptr noundef nonnull align 8 dereferenceable(8) %25)
          to label %_ZN11realclosure17save_interval_ctxD2Ev.exit unwind label %26

26:                                               ; preds = %.noexc.i, %23
  %27 = landingpad { ptr, i32 }
          catch ptr null
  %28 = extractvalue { ptr, i32 } %27, 0
  call void @__clang_call_terminate(ptr %28) #25
  unreachable

_ZN11realclosure17save_interval_ctxD2Ev.exit:     ; preds = %.noexc.i
  call void @llvm.lifetime.end.p0(i64 8, ptr nonnull %5) #24
  ret void
}